target datalayout = "e-m:e-p270:32:32-p271:32:32-p272:64:64-i64:64-i128:128-f80:128-n8:16:32:64-S128"
target triple = "x86_64-pc-linux-gnu"

@.str = private unnamed_addr constant [27 x i8] c"invalid expression context\00", align 1
@.str.1 = private unnamed_addr constant [21 x i8] c"extension expression\00", align 1
@.str.2 = private unnamed_addr constant [8 x i8] c"JOIN/ON\00", align 1
@.str.3 = private unnamed_addr constant [11 x i8] c"JOIN/USING\00", align 1
@.str.4 = private unnamed_addr constant [19 x i8] c"sub-SELECT in FROM\00", align 1
@.str.5 = private unnamed_addr constant [17 x i8] c"function in FROM\00", align 1
@.str.6 = private unnamed_addr constant [6 x i8] c"WHERE\00", align 1
@.str.7 = private unnamed_addr constant [7 x i8] c"POLICY\00", align 1
@.str.8 = private unnamed_addr constant [7 x i8] c"HAVING\00", align 1
@.str.9 = private unnamed_addr constant [7 x i8] c"FILTER\00", align 1
@.str.10 = private unnamed_addr constant [20 x i8] c"window PARTITION BY\00", align 1
@.str.11 = private unnamed_addr constant [16 x i8] c"window ORDER BY\00", align 1
@.str.12 = private unnamed_addr constant [13 x i8] c"window RANGE\00", align 1
@.str.13 = private unnamed_addr constant [12 x i8] c"window ROWS\00", align 1
@.str.14 = private unnamed_addr constant [14 x i8] c"window GROUPS\00", align 1
@.str.15 = private unnamed_addr constant [7 x i8] c"SELECT\00", align 1
@.str.16 = private unnamed_addr constant [7 x i8] c"INSERT\00", align 1
@.str.17 = private unnamed_addr constant [7 x i8] c"UPDATE\00", align 1
@.str.18 = private unnamed_addr constant [11 x i8] c"MERGE WHEN\00", align 1
@.str.19 = private unnamed_addr constant [9 x i8] c"GROUP BY\00", align 1
@.str.20 = private unnamed_addr constant [9 x i8] c"ORDER BY\00", align 1
@.str.21 = private unnamed_addr constant [12 x i8] c"DISTINCT ON\00", align 1
@.str.22 = private unnamed_addr constant [6 x i8] c"LIMIT\00", align 1
@.str.23 = private unnamed_addr constant [7 x i8] c"OFFSET\00", align 1
@.str.24 = private unnamed_addr constant [10 x i8] c"RETURNING\00", align 1
@.str.25 = private unnamed_addr constant [7 x i8] c"VALUES\00", align 1
@.str.26 = private unnamed_addr constant [6 x i8] c"CHECK\00", align 1
@.str.27 = private unnamed_addr constant [8 x i8] c"DEFAULT\00", align 1
@.str.28 = private unnamed_addr constant [17 x i8] c"index expression\00", align 1
@.str.29 = private unnamed_addr constant [16 x i8] c"index predicate\00", align 1
@.str.30 = private unnamed_addr constant [22 x i8] c"statistics expression\00", align 1
@.str.31 = private unnamed_addr constant [6 x i8] c"USING\00", align 1
@.str.32 = private unnamed_addr constant [8 x i8] c"EXECUTE\00", align 1
@.str.33 = private unnamed_addr constant [5 x i8] c"WHEN\00", align 1
@.str.34 = private unnamed_addr constant [16 x i8] c"partition bound\00", align 1
@.str.35 = private unnamed_addr constant [13 x i8] c"PARTITION BY\00", align 1
@.str.36 = private unnamed_addr constant [5 x i8] c"CALL\00", align 1
@.str.37 = private unnamed_addr constant [13 x i8] c"GENERATED AS\00", align 1
@.str.38 = private unnamed_addr constant [6 x i8] c"CYCLE\00", align 1
@.str.39 = private unnamed_addr constant [29 x i8] c"unrecognized expression kind\00", align 1

; Function Attrs: nounwind uwtable
define dso_local ptr @ParseExprKindName(i32 noundef %0) #0 {
  %2 = alloca ptr, align 8
  %3 = alloca i32, align 4
  store i32 %0, ptr %3, align 4
  %4 = load i32, ptr %3, align 4
  switch i32 %4, label %45 [
    i32 0, label %5
    i32 1, label %6
    i32 2, label %7
    i32 3, label %8
    i32 4, label %9
    i32 5, label %10
    i32 6, label %11
    i32 38, label %12
    i32 7, label %13
    i32 8, label %14
    i32 9, label %15
    i32 10, label %16
    i32 11, label %17
    i32 12, label %18
    i32 13, label %19
    i32 14, label %20
    i32 15, label %21
    i32 16, label %22
    i32 17, label %22
    i32 18, label %23
    i32 19, label %24
    i32 20, label %25
    i32 21, label %26
    i32 22, label %27
    i32 23, label %28
    i32 24, label %29
    i32 25, label %29
    i32 26, label %30
    i32 27, label %30
    i32 28, label %31
    i32 29, label %31
    i32 30, label %32
    i32 31, label %32
    i32 32, label %33
    i32 33, label %34
    i32 34, label %35
    i32 35, label %36
    i32 36, label %37
    i32 37, label %38
    i32 39, label %39
    i32 40, label %40
    i32 41, label %41
    i32 42, label %42
    i32 43, label %43
    i32 44, label %44
  ]

5:                                                ; preds = %1
  store ptr @.str, ptr %2, align 8
  br label %46

6:                                                ; preds = %1
  store ptr @.str.1, ptr %2, align 8
  br label %46

7:                                                ; preds = %1
  store ptr @.str.2, ptr %2, align 8
  br label %46

8:                                                ; preds = %1
  store ptr @.str.3, ptr %2, align 8
  br label %46

9:                                                ; preds = %1
  store ptr @.str.4, ptr %2, align 8
  br label %46

10:                                               ; preds = %1
  store ptr @.str.5, ptr %2, align 8
  br label %46

11:                                               ; preds = %1
  store ptr @.str.6, ptr %2, align 8
  br label %46

12:                                               ; preds = %1
  store ptr @.str.7, ptr %2, align 8
  br label %46

13:                                               ; preds = %1
  store ptr @.str.8, ptr %2, align 8
  br label %46

14:                                               ; preds = %1
  store ptr @.str.9, ptr %2, align 8
  br label %46

15:                                               ; preds = %1
  store ptr @.str.10, ptr %2, align 8
  br label %46

16:                                               ; preds = %1
  store ptr @.str.11, ptr %2, align 8
  br label %46

17:                                               ; preds = %1
  store ptr @.str.12, ptr %2, align 8
  br label %46

18:                                               ; preds = %1
  store ptr @.str.13, ptr %2, align 8
  br label %46

19:                                               ; preds = %1
  store ptr @.str.14, ptr %2, align 8
  br label %46

20:                                               ; preds = %1
  store ptr @.str.15, ptr %2, align 8
  br label %46

21:                                               ; preds = %1
  store ptr @.str.16, ptr %2, align 8
  br label %46

22:                                               ; preds = %1, %1
  store ptr @.str.17, ptr %2, align 8
  br label %46

23:                                               ; preds = %1
  store ptr @.str.18, ptr %2, align 8
  br label %46

24:                                               ; preds = %1
  store ptr @.str.19, ptr %2, align 8
  br label %46

25:                                               ; preds = %1
  store ptr @.str.20, ptr %2, align 8
  br label %46

26:                                               ; preds = %1
  store ptr @.str.21, ptr %2, align 8
  br label %46

27:                                               ; preds = %1
  store ptr @.str.22, ptr %2, align 8
  br label %46

28:                                               ; preds = %1
  store ptr @.str.23, ptr %2, align 8
  br label %46

29:                                               ; preds = %1, %1
  store ptr @.str.24, ptr %2, align 8
  br label %46

30:                                               ; preds = %1, %1
  store ptr @.str.25, ptr %2, align 8
  br label %46

31:                                               ; preds = %1, %1
  store ptr @.str.26, ptr %2, align 8
  br label %46

32:                                               ; preds = %1, %1
  store ptr @.str.27, ptr %2, align 8
  br label %46

33:                                               ; preds = %1
  store ptr @.str.28, ptr %2, align 8
  br label %46

34:                                               ; preds = %1
  store ptr @.str.29, ptr %2, align 8
  br label %46

35:                                               ; preds = %1
  store ptr @.str.30, ptr %2, align 8
  br label %46

36:                                               ; preds = %1
  store ptr @.str.31, ptr %2, align 8
  br label %46

37:                                               ; preds = %1
  store ptr @.str.32, ptr %2, align 8
  br label %46

38:                                               ; preds = %1
  store ptr @.str.33, ptr %2, align 8
  br label %46

39:                                               ; preds = %1
  store ptr @.str.34, ptr %2, align 8
  br label %46

40:                                               ; preds = %1
  store ptr @.str.35, ptr %2, align 8
  br label %46

41:                                               ; preds = %1
  store ptr @.str.36, ptr %2, align 8
  br label %46

42:                                               ; preds = %1
  store ptr @.str.6, ptr %2, align 8
  br label %46

43:                                               ; preds = %1
  store ptr @.str.37, ptr %2, align 8
  br label %46

44:                                               ; preds = %1
  store ptr @.str.38, ptr %2, align 8
  br label %46

45:                                               ; preds = %1
  store ptr @.str.39, ptr %2, align 8
  br label %46

46:                                               ; preds = %45, %44, %43, %42, %41, %40, %39, %38, %37, %36, %35, %34, %33, %32, %31, %30, %29, %28, %27, %26, %25, %24, %23, %22, %21, %20, %19, %18, %17, %16, %15, %14, %13, %12, %11, %10, %9, %8, %7, %6, %5
  %47 = load ptr, ptr %2, align 8
  ret ptr %47
}